; Function Attrs: mustprogress uwtable
define dso_local void @_ZN10btSoftBody18updateDeactivationEf(ptr noundef nonnull align 8 dereferenceable(2064) %this, float noundef %timeStep) local_unnamed_addr #4 align 2 {
entry:
  %m_activationState1.i = getelementptr inbounds i8, ptr %this, i64 240
  %0 = load i32, ptr %m_activationState1.i, align 8
  switch i32 %0, label %if.end [
    i32 2, label %if.end8
    i32 4, label %if.end8
  ]

if.end:                                           ; preds = %entry
  %m_maxSpeedSquared = getelementptr inbounds i8, ptr %this, i64 1784
  %1 = load float, ptr %m_maxSpeedSquared, align 8
  %m_sleepingThreshold = getelementptr inbounds i8, ptr %this, i64 1780
  %2 = load float, ptr %m_sleepingThreshold, align 4
  %mul = fmul float %2, %2
  %cmp5 = fcmp olt float %1, %mul
  %m_deactivationTime = getelementptr inbounds i8, ptr %this, i64 244
  br i1 %cmp5, label %if.then6, label %if.else

if.then6:                                         ; preds = %if.end
  %3 = load float, ptr %m_deactivationTime, align 4
  %add = fadd float %3, %timeStep
  store float %add, ptr %m_deactivationTime, align 4
  br label %if.end8

if.else:                                          ; preds = %if.end
  store float 0.000000e+00, ptr %m_deactivationTime, align 4
  tail call void @_ZNK17btCollisionObject18setActivationStateEi(ptr noundef nonnull align 8 dereferenceable(372) %this, i32 noundef 0)
  br label %if.end8

if.end8:                                          ; preds = %entry, %entry, %if.else, %if.then6
  ret void
}